; Function Attrs: nounwind uwtable
define ptr @php_lookup_class_name(ptr nocapture noundef readonly %0) local_unnamed_addr #2 {
  %2 = getelementptr inbounds i8, ptr %0, i64 32
  %3 = load ptr, ptr %2, align 8
  %.not = icmp eq ptr %3, null
  br i1 %.not, label %18, label %4

4:                                                ; preds = %1
  %5 = tail call ptr @zend_hash_str_find(ptr noundef nonnull %3, ptr noundef nonnull @.str, i64 noundef 27) #5
  %.not13 = icmp eq ptr %5, null
  br i1 %.not13, label %18, label %6

6:                                                ; preds = %4
  %7 = getelementptr inbounds i8, ptr %5, i64 8
  %8 = load i8, ptr %7, align 8
  %9 = icmp eq i8 %8, 6
  br i1 %9, label %10, label %18

10:                                               ; preds = %6
  %11 = load ptr, ptr %5, align 8
  %12 = getelementptr inbounds i8, ptr %11, i64 4
  %13 = load i32, ptr %12, align 4
  %14 = and i32 %13, 64
  %.not14 = icmp eq i32 %14, 0
  br i1 %.not14, label %15, label %18

15:                                               ; preds = %10
  %16 = load i32, ptr %11, align 4
  %17 = add i32 %16, 1
  store i32 %17, ptr %11, align 4
  br label %18

18:                                               ; preds = %1, %6, %4, %10, %15
  %.0 = phi ptr [ %11, %15 ], [ %11, %10 ], [ null, %4 ], [ null, %6 ], [ null, %1 ]
  ret ptr %.0
}